target datalayout = "e-m:e-p270:32:32-p271:32:32-p272:64:64-i64:64-i128:128-f80:128-n8:16:32:64-S128"
target triple = "x86_64-pc-linux-gnu"

%struct.Abc_Ntk_t_ = type { i32, i32, ptr, ptr, ptr, ptr, ptr, ptr, ptr, ptr, ptr, ptr, ptr, [11 x i32], i32, i32, i32, i32, ptr, i32, ptr, ptr, i32, i32, i32, double, i32, %struct.Vec_Int_t_, ptr, ptr, ptr, ptr, ptr, float, i32, ptr, ptr, ptr, ptr, ptr, ptr, ptr, ptr, ptr, ptr, ptr, ptr, ptr, ptr, ptr, ptr, ptr, ptr, ptr, ptr, ptr, ptr }
%struct.Vec_Int_t_ = type { i32, i32, ptr }
%struct.Vec_Ptr_t_ = type { i32, i32, ptr }

@stdout = external global ptr, align 8
@.str.7 = private unnamed_addr constant [31 x i8] c"These nodes will be deleted: \0A\00", align 1
@.str.8 = private unnamed_addr constant [5 x i8] c"    \00", align 1
@.str.9 = private unnamed_addr constant [39 x i8] c"Cleanup removed %4d dangling objects.\0A\00", align 1
@.str.10 = private unnamed_addr constant [40 x i8] c"Cleanup removed %4d redundant latches.\0A\00", align 1
@.str.11 = private unnamed_addr constant [37 x i8] c"Cleanup added   %4d additional PIs.\0A\00", align 1
@.str.12 = private unnamed_addr constant [41 x i8] c"Cleanup removed %4d autonomous objects.\0A\00", align 1
@.str.13 = private unnamed_addr constant [50 x i8] c"Abc_NtkCleanupSeq: The network check has failed.\0A\00", align 1

; Function Attrs: inlinehint nounwind uwtable
define internal ptr @Vec_PtrEntry(ptr noundef %0, i32 noundef %1) #2 {
  %3 = alloca ptr, align 8
  %4 = alloca i32, align 4
  store ptr %0, ptr %3, align 8, !tbaa !45
  store i32 %1, ptr %4, align 4, !tbaa !8
  %5 = load ptr, ptr %3, align 8, !tbaa !45
  %6 = getelementptr inbounds nuw %struct.Vec_Ptr_t_, ptr %5, i32 0, i32 2
  %7 = load ptr, ptr %6, align 8, !tbaa !73
  %8 = load i32, ptr %4, align 4, !tbaa !8
  %9 = sext i32 %8 to i64
  %10 = getelementptr inbounds ptr, ptr %7, i64 %9
  %11 = load ptr, ptr %10, align 8, !tbaa !78
  ret ptr %11
}

; Function Attrs: inlinehint nounwind uwtable
define internal ptr @Abc_NtkObj(ptr noundef %0, i32 noundef %1) #2 {
  %3 = alloca ptr, align 8
  %4 = alloca i32, align 4
  store ptr %0, ptr %3, align 8, !tbaa !3
  store i32 %1, ptr %4, align 4, !tbaa !8
  %5 = load ptr, ptr %3, align 8, !tbaa !3
  %6 = getelementptr inbounds nuw %struct.Abc_Ntk_t_, ptr %5, i32 0, i32 5
  %7 = load ptr, ptr %6, align 8, !tbaa !10
  %8 = load i32, ptr %4, align 4, !tbaa !8
  %9 = call ptr @Vec_PtrEntry(ptr noundef %7, i32 noundef %8)
  ret ptr %9
}

; Function Attrs: inlinehint nounwind uwtable
define internal i32 @Vec_PtrSize(ptr noundef %0) #2 {
  %2 = alloca ptr, align 8
  store ptr %0, ptr %2, align 8, !tbaa !45
  %3 = load ptr, ptr %2, align 8, !tbaa !45
  %4 = getelementptr inbounds nuw %struct.Vec_Ptr_t_, ptr %3, i32 0, i32 1
  %5 = load i32, ptr %4, align 4, !tbaa !46
  ret i32 %5
}

; Function Attrs: nounwind uwtable
define i32 @Abc_NodeRemoveNonCurrentObjects(ptr noundef %0) #0 {
  %2 = alloca ptr, align 8
  %3 = alloca ptr, align 8
  %4 = alloca i32, align 4
  %5 = alloca i32, align 4
  %6 = alloca i32, align 4
  store ptr %0, ptr %2, align 8, !tbaa !3
  call void @llvm.lifetime.start.p0(i64 8, ptr %3) #7
  call void @llvm.lifetime.start.p0(i64 4, ptr %4) #7
  call void @llvm.lifetime.start.p0(i64 4, ptr %5) #7
  call void @llvm.lifetime.start.p0(i64 4, ptr %6) #7
  store i32 0, ptr %6, align 4, !tbaa !8
  %7 = load i32, ptr %6, align 4, !tbaa !8
  %8 = icmp ne i32 %7, 0
  br i1 %8, label %9, label %42

9:                                                ; preds = %1
  %10 = call i32 (ptr, ...) @printf(ptr noundef @.str.7)
  store i32 0, ptr %5, align 4, !tbaa !8
  br label %11

11:                                               ; preds = %38, %9
  %12 = load i32, ptr %5, align 4, !tbaa !8
  %13 = load ptr, ptr %2, align 8, !tbaa !3
  %14 = getelementptr inbounds nuw %struct.Abc_Ntk_t_, ptr %13, i32 0, i32 5
  %15 = load ptr, ptr %14, align 8, !tbaa !10
  %16 = call i32 @Vec_PtrSize(ptr noundef %15)
  %17 = icmp slt i32 %12, %16
  br i1 %17, label %18, label %22

18:                                               ; preds = %11
  %19 = load ptr, ptr %2, align 8, !tbaa !3
  %20 = load i32, ptr %5, align 4, !tbaa !8
  %21 = call ptr @Abc_NtkObj(ptr noundef %19, i32 noundef %20)
  store ptr %21, ptr %3, align 8, !tbaa !26
  br label %22

22:                                               ; preds = %18, %11
  %23 = phi i1 [ false, %11 ], [ true, %18 ]
  br i1 %23, label %24, label %41

24:                                               ; preds = %22
  %25 = load ptr, ptr %3, align 8, !tbaa !26
  %26 = icmp eq ptr %25, null
  br i1 %26, label %27, label %28

27:                                               ; preds = %24
  br label %37

28:                                               ; preds = %24
  %29 = load ptr, ptr %3, align 8, !tbaa !26
  %30 = call i32 @Abc_NodeIsTravIdCurrent(ptr noundef %29)
  %31 = icmp ne i32 %30, 0
  br i1 %31, label %36, label %32

32:                                               ; preds = %28
  %33 = call i32 (ptr, ...) @printf(ptr noundef @.str.8)
  %34 = load ptr, ptr @stdout, align 8, !tbaa !65
  %35 = load ptr, ptr %3, align 8, !tbaa !26
  call void @Abc_ObjPrint(ptr noundef %34, ptr noundef %35)
  br label %36

36:                                               ; preds = %32, %28
  br label %37

37:                                               ; preds = %36, %27
  br label %38

38:                                               ; preds = %37
  %39 = load i32, ptr %5, align 4, !tbaa !8
  %40 = add nsw i32 %39, 1
  store i32 %40, ptr %5, align 4, !tbaa !8
  br label %11, !llvm.loop !92

41:                                               ; preds = %22
  br label %42

42:                                               ; preds = %41, %1
  store i32 0, ptr %4, align 4, !tbaa !8
  store i32 0, ptr %5, align 4, !tbaa !8
  br label %43

43:                                               ; preds = %70, %42
  %44 = load i32, ptr %5, align 4, !tbaa !8
  %45 = load ptr, ptr %2, align 8, !tbaa !3
  %46 = getelementptr inbounds nuw %struct.Abc_Ntk_t_, ptr %45, i32 0, i32 5
  %47 = load ptr, ptr %46, align 8, !tbaa !10
  %48 = call i32 @Vec_PtrSize(ptr noundef %47)
  %49 = icmp slt i32 %44, %48
  br i1 %49, label %50, label %54

50:                                               ; preds = %43
  %51 = load ptr, ptr %2, align 8, !tbaa !3
  %52 = load i32, ptr %5, align 4, !tbaa !8
  %53 = call ptr @Abc_NtkObj(ptr noundef %51, i32 noundef %52)
  store ptr %53, ptr %3, align 8, !tbaa !26
  br label %54

54:                                               ; preds = %50, %43
  %55 = phi i1 [ false, %43 ], [ true, %50 ]
  br i1 %55, label %56, label %73

56:                                               ; preds = %54
  %57 = load ptr, ptr %3, align 8, !tbaa !26
  %58 = icmp eq ptr %57, null
  br i1 %58, label %59, label %60

59:                                               ; preds = %56
  br label %69

60:                                               ; preds = %56
  %61 = load ptr, ptr %3, align 8, !tbaa !26
  %62 = call i32 @Abc_NodeIsTravIdCurrent(ptr noundef %61)
  %63 = icmp ne i32 %62, 0
  br i1 %63, label %68, label %64

64:                                               ; preds = %60
  %65 = load ptr, ptr %3, align 8, !tbaa !26
  call void @Abc_NtkDeleteObj(ptr noundef %65)
  %66 = load i32, ptr %4, align 4, !tbaa !8
  %67 = add nsw i32 %66, 1
  store i32 %67, ptr %4, align 4, !tbaa !8
  br label %68

68:                                               ; preds = %64, %60
  br label %69

69:                                               ; preds = %68, %59
  br label %70

70:                                               ; preds = %69
  %71 = load i32, ptr %5, align 4, !tbaa !8
  %72 = add nsw i32 %71, 1
  store i32 %72, ptr %5, align 4, !tbaa !8
  br label %43, !llvm.loop !93

73:                                               ; preds = %54
  %74 = load i32, ptr %4, align 4, !tbaa !8
  call void @llvm.lifetime.end.p0(i64 4, ptr %6) #7
  call void @llvm.lifetime.end.p0(i64 4, ptr %5) #7
  call void @llvm.lifetime.end.p0(i64 4, ptr %4) #7
  call void @llvm.lifetime.end.p0(i64 8, ptr %3) #7
  ret i32 %74
}

; Function Attrs: inlinehint nounwind uwtable
define internal void @Vec_PtrFree(ptr noundef %0) #2 {
  %2 = alloca ptr, align 8
  store ptr %0, ptr %2, align 8, !tbaa !45
  %3 = load ptr, ptr %2, align 8, !tbaa !45
  %4 = getelementptr inbounds nuw %struct.Vec_Ptr_t_, ptr %3, i32 0, i32 2
  %5 = load ptr, ptr %4, align 8, !tbaa !73
  %6 = icmp ne ptr %5, null
  br i1 %6, label %7, label %13

7:                                                ; preds = %1
  %8 = load ptr, ptr %2, align 8, !tbaa !45
  %9 = getelementptr inbounds nuw %struct.Vec_Ptr_t_, ptr %8, i32 0, i32 2
  %10 = load ptr, ptr %9, align 8, !tbaa !73
  call void @free(ptr noundef %10) #7
  %11 = load ptr, ptr %2, align 8, !tbaa !45
  %12 = getelementptr inbounds nuw %struct.Vec_Ptr_t_, ptr %11, i32 0, i32 2
  store ptr null, ptr %12, align 8, !tbaa !73
  br label %14

13:                                               ; preds = %1
  br label %14

14:                                               ; preds = %13, %7
  %15 = load ptr, ptr %2, align 8, !tbaa !45
  %16 = icmp ne ptr %15, null
  br i1 %16, label %17, label %19

17:                                               ; preds = %14
  %18 = load ptr, ptr %2, align 8, !tbaa !45
  call void @free(ptr noundef %18) #7
  store ptr null, ptr %2, align 8, !tbaa !45
  br label %20

19:                                               ; preds = %14
  br label %20

20:                                               ; preds = %19, %17
  ret void
}

; Function Attrs: nounwind uwtable
define i32 @Abc_NtkCleanupSeq(ptr noundef %0, i32 noundef %1, i32 noundef %2, i32 noundef %3) #0 {
  %5 = alloca ptr, align 8
  %6 = alloca i32, align 4
  %7 = alloca i32, align 4
  %8 = alloca i32, align 4
  %9 = alloca ptr, align 8
  %10 = alloca i32, align 4
  store ptr %0, ptr %5, align 8, !tbaa !3
  store i32 %1, ptr %6, align 4, !tbaa !8
  store i32 %2, ptr %7, align 4, !tbaa !8
  store i32 %3, ptr %8, align 4, !tbaa !8
  call void @llvm.lifetime.start.p0(i64 8, ptr %9) #7
  call void @llvm.lifetime.start.p0(i64 4, ptr %10) #7
  %11 = load ptr, ptr %5, align 8, !tbaa !3
  %12 = call ptr @Abc_NtkDfsSeq(ptr noundef %11)
  store ptr %12, ptr %9, align 8, !tbaa !45
  %13 = load ptr, ptr %9, align 8, !tbaa !45
  call void @Vec_PtrFree(ptr noundef %13)
  %14 = load ptr, ptr %5, align 8, !tbaa !3
  %15 = call i32 @Abc_NodeRemoveNonCurrentObjects(ptr noundef %14)
  store i32 %15, ptr %10, align 4, !tbaa !8
  %16 = load i32, ptr %8, align 4, !tbaa !8
  %17 = icmp ne i32 %16, 0
  br i1 %17, label %18, label %21

18:                                               ; preds = %4
  %19 = load i32, ptr %10, align 4, !tbaa !8
  %20 = call i32 (ptr, ...) @printf(ptr noundef @.str.9, i32 noundef %19)
  br label %21

21:                                               ; preds = %18, %4
  %22 = load i32, ptr %6, align 4, !tbaa !8
  %23 = icmp ne i32 %22, 0
  br i1 %23, label %24, label %33

24:                                               ; preds = %21
  %25 = load ptr, ptr %5, align 8, !tbaa !3
  %26 = call i32 @Abc_NtkLatchSweep(ptr noundef %25)
  store i32 %26, ptr %10, align 4, !tbaa !8
  %27 = load i32, ptr %8, align 4, !tbaa !8
  %28 = icmp ne i32 %27, 0
  br i1 %28, label %29, label %32

29:                                               ; preds = %24
  %30 = load i32, ptr %10, align 4, !tbaa !8
  %31 = call i32 (ptr, ...) @printf(ptr noundef @.str.10, i32 noundef %30)
  br label %32

32:                                               ; preds = %29, %24
  br label %33

33:                                               ; preds = %32, %21
  %34 = load i32, ptr %7, align 4, !tbaa !8
  %35 = icmp ne i32 %34, 0
  br i1 %35, label %36, label %56

36:                                               ; preds = %33
  %37 = load ptr, ptr %5, align 8, !tbaa !3
  %38 = call ptr @Abc_NtkDfsSeqReverse(ptr noundef %37)
  store ptr %38, ptr %9, align 8, !tbaa !45
  %39 = load ptr, ptr %9, align 8, !tbaa !45
  call void @Vec_PtrFree(ptr noundef %39)
  %40 = load ptr, ptr %5, align 8, !tbaa !3
  %41 = call i32 @Abc_NtkReplaceAutonomousLogic(ptr noundef %40)
  store i32 %41, ptr %10, align 4, !tbaa !8
  %42 = load i32, ptr %8, align 4, !tbaa !8
  %43 = icmp ne i32 %42, 0
  br i1 %43, label %44, label %47

44:                                               ; preds = %36
  %45 = load i32, ptr %10, align 4, !tbaa !8
  %46 = call i32 (ptr, ...) @printf(ptr noundef @.str.11, i32 noundef %45)
  br label %47

47:                                               ; preds = %44, %36
  %48 = load ptr, ptr %5, align 8, !tbaa !3
  %49 = call i32 @Abc_NodeRemoveNonCurrentObjects(ptr noundef %48)
  store i32 %49, ptr %10, align 4, !tbaa !8
  %50 = load i32, ptr %8, align 4, !tbaa !8
  %51 = icmp ne i32 %50, 0
  br i1 %51, label %52, label %55

52:                                               ; preds = %47
  %53 = load i32, ptr %10, align 4, !tbaa !8
  %54 = call i32 (ptr, ...) @printf(ptr noundef @.str.12, i32 noundef %53)
  br label %55

55:                                               ; preds = %52, %47
  br label %56

56:                                               ; preds = %55, %33
  %57 = load ptr, ptr %5, align 8, !tbaa !3
  %58 = call i32 @Abc_NtkCheck(ptr noundef %57)
  %59 = icmp ne i32 %58, 0
  br i1 %59, label %62, label %60

60:                                               ; preds = %56
  %61 = call i32 (ptr, ...) @printf(ptr noundef @.str.13)
  br label %62

62:                                               ; preds = %60, %56
  call void @llvm.lifetime.end.p0(i64 4, ptr %10) #7
  call void @llvm.lifetime.end.p0(i64 8, ptr %9) #7
  ret i32 1
}