; Function Attrs: nounwind uwtable
define noundef i32 @Abc_NtkCleanupSeq(ptr noundef %0, i32 noundef %1, i32 noundef %2, i32 noundef %3) local_unnamed_addr #0 {
  %5 = tail call ptr @Abc_NtkDfsSeq(ptr noundef %0) #11
  %6 = getelementptr inbounds nuw i8, ptr %5, i64 8
  %7 = load ptr, ptr %6, align 8, !tbaa !28
  %.not.i = icmp eq ptr %7, null
  br i1 %.not.i, label %Vec_PtrFree.exit, label %8

8:                                                ; preds = %4
  tail call void @free(ptr noundef nonnull %7) #11
  br label %Vec_PtrFree.exit

Vec_PtrFree.exit:                                 ; preds = %4, %8
  tail call void @free(ptr noundef nonnull %5) #11
  %9 = getelementptr inbounds nuw i8, ptr %0, i64 32
  %10 = load ptr, ptr %9, align 8, !tbaa !25
  %11 = getelementptr i8, ptr %10, i64 4
  %.val25.i = load i32, ptr %11, align 4, !tbaa !26
  %12 = icmp sgt i32 %.val25.i, 0
  br i1 %12, label %.lr.ph.i, label %Abc_NodeRemoveNonCurrentObjects.exit

.lr.ph.i:                                         ; preds = %Vec_PtrFree.exit, %22
  %indvars.iv.i = phi i64 [ %indvars.iv.next.i, %22 ], [ 0, %Vec_PtrFree.exit ]
  %13 = phi ptr [ %23, %22 ], [ %10, %Vec_PtrFree.exit ]
  %.02026.i = phi i32 [ %.121.i, %22 ], [ 0, %Vec_PtrFree.exit ]
  %14 = getelementptr i8, ptr %13, i64 8
  %.val24.val.i = load ptr, ptr %14, align 8, !tbaa !28
  %15 = getelementptr inbounds nuw ptr, ptr %.val24.val.i, i64 %indvars.iv.i
  %16 = load ptr, ptr %15, align 8, !tbaa !29
  %17 = icmp eq ptr %16, null
  br i1 %17, label %22, label %18

18:                                               ; preds = %.lr.ph.i
  %19 = tail call fastcc i32 @Abc_NodeIsTravIdCurrent(ptr noundef nonnull %16)
  %.not.i21 = icmp eq i32 %19, 0
  br i1 %.not.i21, label %20, label %22

20:                                               ; preds = %18
  tail call void @Abc_NtkDeleteObj(ptr noundef nonnull %16) #11
  %21 = add nsw i32 %.02026.i, 1
  br label %22

22:                                               ; preds = %20, %18, %.lr.ph.i
  %.121.i = phi i32 [ %.02026.i, %.lr.ph.i ], [ %.02026.i, %18 ], [ %21, %20 ]
  %indvars.iv.next.i = add nuw nsw i64 %indvars.iv.i, 1
  %23 = load ptr, ptr %9, align 8, !tbaa !25
  %24 = getelementptr i8, ptr %23, i64 4
  %.val.i = load i32, ptr %24, align 4, !tbaa !26
  %25 = sext i32 %.val.i to i64
  %26 = icmp slt i64 %indvars.iv.next.i, %25
  br i1 %26, label %.lr.ph.i, label %Abc_NodeRemoveNonCurrentObjects.exit, !llvm.loop !88

Abc_NodeRemoveNonCurrentObjects.exit:             ; preds = %22, %Vec_PtrFree.exit
  %.020.lcssa.i = phi i32 [ 0, %Vec_PtrFree.exit ], [ %.121.i, %22 ]
  %.not = icmp eq i32 %3, 0
  br i1 %.not, label %27, label %.thread

27:                                               ; preds = %Abc_NodeRemoveNonCurrentObjects.exit
  %.not18 = icmp eq i32 %1, 0
  br i1 %.not18, label %34, label %29

.thread:                                          ; preds = %Abc_NodeRemoveNonCurrentObjects.exit
  %28 = tail call i32 (ptr, ...) @printf(ptr noundef nonnull dereferenceable(1) @.str.9, i32 noundef %.020.lcssa.i)
  %.not1835 = icmp eq i32 %1, 0
  br i1 %.not1835, label %34, label %31

29:                                               ; preds = %27
  %30 = tail call i32 @Abc_NtkLatchSweep(ptr noundef nonnull %0)
  br label %34

31:                                               ; preds = %.thread
  %32 = tail call i32 @Abc_NtkLatchSweep(ptr noundef nonnull %0)
  %33 = tail call i32 (ptr, ...) @printf(ptr noundef nonnull dereferenceable(1) @.str.10, i32 noundef %32)
  br label %34

34:                                               ; preds = %29, %.thread, %31, %27
  %.not19 = icmp eq i32 %2, 0
  br i1 %.not19, label %63, label %35

35:                                               ; preds = %34
  %36 = tail call ptr @Abc_NtkDfsSeqReverse(ptr noundef nonnull %0) #11
  %37 = getelementptr inbounds nuw i8, ptr %36, i64 8
  %38 = load ptr, ptr %37, align 8, !tbaa !28
  %.not.i22 = icmp eq ptr %38, null
  br i1 %.not.i22, label %Vec_PtrFree.exit23, label %39

39:                                               ; preds = %35
  tail call void @free(ptr noundef nonnull %38) #11
  br label %Vec_PtrFree.exit23

Vec_PtrFree.exit23:                               ; preds = %35, %39
  tail call void @free(ptr noundef nonnull %36) #11
  %40 = tail call i32 @Abc_NtkReplaceAutonomousLogic(ptr noundef nonnull %0)
  br i1 %.not, label %43, label %41

41:                                               ; preds = %Vec_PtrFree.exit23
  %42 = tail call i32 (ptr, ...) @printf(ptr noundef nonnull dereferenceable(1) @.str.11, i32 noundef %40)
  br label %43

43:                                               ; preds = %41, %Vec_PtrFree.exit23
  %44 = load ptr, ptr %9, align 8, !tbaa !25
  %45 = getelementptr i8, ptr %44, i64 4
  %.val25.i24 = load i32, ptr %45, align 4, !tbaa !26
  %46 = icmp sgt i32 %.val25.i24, 0
  br i1 %46, label %.lr.ph.i26, label %Abc_NodeRemoveNonCurrentObjects.exit34

.lr.ph.i26:                                       ; preds = %43, %56
  %indvars.iv.i27 = phi i64 [ %indvars.iv.next.i32, %56 ], [ 0, %43 ]
  %47 = phi ptr [ %57, %56 ], [ %44, %43 ]
  %.02026.i28 = phi i32 [ %.121.i31, %56 ], [ 0, %43 ]
  %48 = getelementptr i8, ptr %47, i64 8
  %.val24.val.i29 = load ptr, ptr %48, align 8, !tbaa !28
  %49 = getelementptr inbounds nuw ptr, ptr %.val24.val.i29, i64 %indvars.iv.i27
  %50 = load ptr, ptr %49, align 8, !tbaa !29
  %51 = icmp eq ptr %50, null
  br i1 %51, label %56, label %52

52:                                               ; preds = %.lr.ph.i26
  %53 = tail call fastcc i32 @Abc_NodeIsTravIdCurrent(ptr noundef nonnull %50)
  %.not.i30 = icmp eq i32 %53, 0
  br i1 %.not.i30, label %54, label %56

54:                                               ; preds = %52
  tail call void @Abc_NtkDeleteObj(ptr noundef nonnull %50) #11
  %55 = add nsw i32 %.02026.i28, 1
  br label %56

56:                                               ; preds = %54, %52, %.lr.ph.i26
  %.121.i31 = phi i32 [ %.02026.i28, %.lr.ph.i26 ], [ %.02026.i28, %52 ], [ %55, %54 ]
  %indvars.iv.next.i32 = add nuw nsw i64 %indvars.iv.i27, 1
  %57 = load ptr, ptr %9, align 8, !tbaa !25
  %58 = getelementptr i8, ptr %57, i64 4
  %.val.i33 = load i32, ptr %58, align 4, !tbaa !26
  %59 = sext i32 %.val.i33 to i64
  %60 = icmp slt i64 %indvars.iv.next.i32, %59
  br i1 %60, label %.lr.ph.i26, label %Abc_NodeRemoveNonCurrentObjects.exit34, !llvm.loop !88

Abc_NodeRemoveNonCurrentObjects.exit34:           ; preds = %56, %43
  %.020.lcssa.i25 = phi i32 [ 0, %43 ], [ %.121.i31, %56 ]
  br i1 %.not, label %63, label %61

61:                                               ; preds = %Abc_NodeRemoveNonCurrentObjects.exit34
  %62 = tail call i32 (ptr, ...) @printf(ptr noundef nonnull dereferenceable(1) @.str.12, i32 noundef %.020.lcssa.i25)
  br label %63

63:                                               ; preds = %Abc_NodeRemoveNonCurrentObjects.exit34, %61, %34
  %64 = tail call i32 @Abc_NtkCheck(ptr noundef nonnull %0) #11
  %.not20 = icmp eq i32 %64, 0
  br i1 %.not20, label %65, label %66

65:                                               ; preds = %63
  %puts = tail call i32 @puts(ptr nonnull dereferenceable(1) @str.4)
  br label %66

66:                                               ; preds = %65, %63
  ret i32 1
}